; Function Attrs: mustprogress uwtable
define noundef range(i32 -10000, 1) i32 @_ZN12duckdb_miniz15mz_inflateInit2EPNS_11mz_stream_sEi(ptr noundef captures(address_is_null) %0, i32 noundef %1) local_unnamed_addr #8 {
  %.not = icmp eq ptr %0, null
  br i1 %.not, label %29, label %3

3:                                                ; preds = %2
  switch i32 %1, label %29 [
    i32 15, label %4
    i32 -15, label %4
  ]

4:                                                ; preds = %3, %3
  %5 = getelementptr inbounds nuw i8, ptr %0, i64 88
  store i32 0, ptr %5, align 8, !tbaa !14
  %6 = getelementptr inbounds nuw i8, ptr %0, i64 96
  %7 = getelementptr inbounds nuw i8, ptr %0, i64 16
  store i64 0, ptr %7, align 8, !tbaa !22
  %8 = getelementptr inbounds nuw i8, ptr %0, i64 40
  %9 = getelementptr inbounds nuw i8, ptr %0, i64 64
  tail call void @llvm.memset.p0.i64(ptr noundef nonnull align 8 dereferenceable(16) %8, i8 0, i64 16, i1 false)
  tail call void @llvm.memset.p0.i64(ptr noundef nonnull align 8 dereferenceable(16) %6, i8 0, i64 16, i1 false)
  %10 = load ptr, ptr %9, align 8, !tbaa !23
  %.not31 = icmp eq ptr %10, null
  br i1 %.not31, label %11, label %12

11:                                               ; preds = %4
  store ptr @_ZN12duckdb_miniz20miniz_def_alloc_funcEPvmm, ptr %9, align 8, !tbaa !23
  br label %12

12:                                               ; preds = %11, %4
  %13 = phi ptr [ @_ZN12duckdb_miniz20miniz_def_alloc_funcEPvmm, %11 ], [ %10, %4 ]
  %14 = getelementptr inbounds nuw i8, ptr %0, i64 72
  %15 = load ptr, ptr %14, align 8, !tbaa !24
  %.not32 = icmp eq ptr %15, null
  br i1 %.not32, label %16, label %17

16:                                               ; preds = %12
  store ptr @_ZN12duckdb_miniz19miniz_def_free_funcEPvS0_, ptr %14, align 8, !tbaa !24
  br label %17

17:                                               ; preds = %16, %12
  %18 = getelementptr inbounds nuw i8, ptr %0, i64 80
  %19 = load ptr, ptr %18, align 8, !tbaa !25
  %20 = tail call noundef ptr %13(ptr noundef %19, i64 noundef 1, i64 noundef 43792)
  %.not33 = icmp eq ptr %20, null
  br i1 %.not33, label %29, label %21

21:                                               ; preds = %17
  %22 = getelementptr inbounds nuw i8, ptr %0, i64 56
  store ptr %20, ptr %22, align 8, !tbaa !26
  store i32 0, ptr %20, align 8, !tbaa !66
  %23 = getelementptr inbounds nuw i8, ptr %20, i64 11000
  store i32 0, ptr %23, align 8, !tbaa !70
  %24 = getelementptr inbounds nuw i8, ptr %20, i64 11004
  store i32 0, ptr %24, align 4, !tbaa !71
  %25 = getelementptr inbounds nuw i8, ptr %20, i64 43788
  store i32 1, ptr %25, align 4, !tbaa !72
  %26 = getelementptr inbounds nuw i8, ptr %20, i64 11008
  store i32 1, ptr %26, align 8, !tbaa !73
  %27 = getelementptr inbounds nuw i8, ptr %20, i64 11012
  store i32 0, ptr %27, align 4, !tbaa !74
  %28 = getelementptr inbounds nuw i8, ptr %20, i64 11016
  store i32 %1, ptr %28, align 8, !tbaa !75
  br label %29

29:                                               ; preds = %17, %3, %2, %21
  %.0 = phi i32 [ 0, %21 ], [ -2, %2 ], [ -10000, %3 ], [ -4, %17 ]
  ret i32 %.0
}